; Function Attrs: mustprogress uwtable
define void @_ZN3gmx18AbstractPlotModuleC2Ev(ptr noundef nonnull writeonly align 8 captures(none) dereferenceable(16) initializes((0, 8)) %0) unnamed_addr #2 align 2 personality ptr @__gxx_personality_v0 {
  %2 = alloca %"class.gmx::AnalysisDataPlotSettings", align 8
  store ptr getelementptr inbounds nuw inrange(-16, 80) (i8, ptr @_ZTVN3gmx18AbstractPlotModuleE, i64 16), ptr %0, align 8, !tbaa !47
  %3 = tail call noalias noundef nonnull dereferenceable(288) ptr @_Znwm(i64 noundef 288) #38
  call void @llvm.lifetime.start.p0(i64 16, ptr nonnull %2) #35
  invoke void @_ZN3gmx24AnalysisDataPlotSettingsC1Ev(ptr noundef nonnull align 8 dereferenceable(16) %2)
          to label %4 unwind label %7

4:                                                ; preds = %1
  invoke void @_ZN3gmx18AbstractPlotModule4ImplC1ERKNS_24AnalysisDataPlotSettingsE(ptr noundef nonnull align 8 dereferenceable(284) %3, ptr noundef nonnull align 8 dereferenceable(16) %2)
          to label %5 unwind label %7

5:                                                ; preds = %4
  %6 = getelementptr inbounds nuw i8, ptr %0, i64 8
  store ptr %3, ptr %6, align 8, !tbaa !4
  call void @llvm.lifetime.end.p0(i64 16, ptr nonnull %2) #35
  ret void

7:                                                ; preds = %4, %1
  %8 = landingpad { ptr, i32 }
          cleanup
  call void @llvm.lifetime.end.p0(i64 16, ptr nonnull %2) #35
  call void @_ZdlPvm(ptr noundef nonnull %3, i64 noundef 288) #36
  resume { ptr, i32 } %8
}